; Function Attrs: nounwind uwtable
define internal ptr @unicode_substring(ptr readnone captures(none) %0, ptr noundef %1) #0 {
  %3 = alloca ptr, align 8
  %4 = alloca i64, align 8
  %5 = alloca i64, align 8
  call void @llvm.lifetime.start.p0(i64 8, ptr nonnull %3) #4
  call void @llvm.lifetime.start.p0(i64 8, ptr nonnull %4) #4
  call void @llvm.lifetime.start.p0(i64 8, ptr nonnull %5) #4
  %6 = call i32 (ptr, ptr, ...) @PyArg_ParseTuple(ptr noundef %1, ptr noundef nonnull @.str.366, ptr noundef nonnull %3, ptr noundef nonnull %4, ptr noundef nonnull %5) #4
  %.not = icmp eq i32 %6, 0
  br i1 %.not, label %17, label %7

7:                                                ; preds = %2
  %8 = load ptr, ptr %3, align 8, !tbaa !8
  %9 = call ptr @Py_GetConstantBorrowed(i32 noundef 0) #4
  %10 = icmp eq ptr %8, %9
  br i1 %10, label %11, label %._crit_edge

._crit_edge:                                      ; preds = %7
  %.pre = load ptr, ptr %3, align 8, !tbaa !8
  br label %12

11:                                               ; preds = %7
  store ptr null, ptr %3, align 8, !tbaa !8
  br label %12

12:                                               ; preds = %._crit_edge, %11
  %13 = phi ptr [ %.pre, %._crit_edge ], [ null, %11 ]
  %14 = load i64, ptr %4, align 8, !tbaa !10
  %15 = load i64, ptr %5, align 8, !tbaa !10
  %16 = call ptr @PyUnicode_Substring(ptr noundef %13, i64 noundef %14, i64 noundef %15) #4
  br label %17

17:                                               ; preds = %2, %12
  %.0 = phi ptr [ %16, %12 ], [ null, %2 ]
  call void @llvm.lifetime.end.p0(i64 8, ptr nonnull %5) #4
  call void @llvm.lifetime.end.p0(i64 8, ptr nonnull %4) #4
  call void @llvm.lifetime.end.p0(i64 8, ptr nonnull %3) #4
  ret ptr %.0
}